; Function Attrs: mustprogress nounwind uwtable
define hidden void @_ZNK6Symbol15print_symbol_onEP12outputStream(ptr noundef nonnull align 4 dereferenceable(8) %0, ptr noundef %1) local_unnamed_addr #1 align 2 {
  %.not = icmp eq ptr %1, null
  %3 = load ptr, ptr @tty, align 8
  %4 = select i1 %.not, ptr %3, ptr %1
  %5 = tail call align 8 ptr @llvm.threadlocal.address.p0(ptr align 8 @_ZN6Thread12_thr_currentE)
  %6 = load ptr, ptr %5, align 8
  %7 = getelementptr inbounds i8, ptr %6, i64 800
  %8 = load ptr, ptr %7, align 8
  %9 = getelementptr inbounds i8, ptr %8, i64 24
  %10 = load ptr, ptr %9, align 8
  %11 = getelementptr inbounds i8, ptr %8, i64 32
  %12 = load ptr, ptr %11, align 8
  %13 = getelementptr inbounds i8, ptr %8, i64 40
  %14 = load ptr, ptr %13, align 8
  %15 = getelementptr inbounds i8, ptr %8, i64 8
  %16 = load i64, ptr %15, align 8
  %17 = getelementptr inbounds i8, ptr %0, i64 6
  %18 = getelementptr inbounds i8, ptr %0, i64 4
  %19 = load i16, ptr %18, align 4
  %20 = zext i16 %19 to i32
  %21 = tail call noundef i32 @_ZN4UTF819quoted_ascii_lengthEPKci(ptr noundef nonnull %17, i32 noundef %20) #17
  %22 = add nsw i32 %21, 1
  %23 = sext i32 %22 to i64
  %24 = tail call noundef ptr @_Z23resource_allocate_bytesmN17AllocFailStrategy13AllocFailEnumE(i64 noundef %23, i32 noundef 0) #17
  %25 = load i16, ptr %18, align 4
  %26 = zext i16 %25 to i32
  tail call void @_ZN4UTF815as_quoted_asciiEPKciPci(ptr noundef nonnull %17, i32 noundef %26, ptr noundef %24, i32 noundef %22) #17
  %27 = tail call noundef ptr @_ZN2os6strdupEPKc8MEMFLAGS(ptr noundef %24, i8 noundef zeroext 9) #17
  %28 = load ptr, ptr %10, align 8
  %.not.i.i.i.i = icmp eq ptr %28, null
  br i1 %.not.i.i.i.i, label %30, label %29

29:                                               ; preds = %2
  tail call void @_ZN5Arena17set_size_in_bytesEm(ptr noundef nonnull align 8 dereferenceable(48) %8, i64 noundef %16) #17
  tail call void @_ZN5Chunk9next_chopEPS_(ptr noundef nonnull %10) #17
  br label %30

30:                                               ; preds = %29, %2
  %31 = load ptr, ptr %11, align 8
  %.not8.i.i.i.i = icmp eq ptr %31, %12
  br i1 %.not8.i.i.i.i, label %_ZN12ResourceMarkD2Ev.exit, label %32

32:                                               ; preds = %30
  store ptr %10, ptr %9, align 8
  store ptr %12, ptr %11, align 8
  store ptr %14, ptr %13, align 8
  br label %_ZN12ResourceMarkD2Ev.exit

_ZN12ResourceMarkD2Ev.exit:                       ; preds = %30, %32
  %33 = icmp eq ptr %27, null
  br i1 %33, label %34, label %35

34:                                               ; preds = %_ZN12ResourceMarkD2Ev.exit
  tail call void (ptr, ptr, ...) @_ZN12outputStream5printEPKcz(ptr noundef nonnull align 8 dereferenceable(56) %4, ptr noundef nonnull @.str.4) #17
  br label %36

35:                                               ; preds = %_ZN12ResourceMarkD2Ev.exit
  tail call void (ptr, ptr, ...) @_ZN12outputStream5printEPKcz(ptr noundef nonnull align 8 dereferenceable(56) %4, ptr noundef nonnull @.str, ptr noundef nonnull %27) #17
  tail call void @_ZN2os4freeEPv(ptr noundef nonnull %27) #17
  br label %36

36:                                               ; preds = %35, %34
  ret void
}